(dp0
S'graphs/semclosgraph1mio.p'
p1
(dp2
S'std'
p3
cnumpy.core.multiarray
scalar
p4
(cnumpy
dtype
p5
(S'f8'
p6
I0
I1
tp7
Rp8
(I3
S'<'
p9
NNNI-1
I-1
I0
tp10
bS'\xae\xdcEH\x92!\xea?'
p11
tp12
Rp13
sS'max'
p14
g4
(g8
S'\x90\xfb34e\x91"@'
p15
tp16
Rp17
sS'sum'
p18
g4
(g8
S'h6\xe8\x854\xbd/A'
p19
tp20
Rp21
sS'mean'
p22
g4
(g8
S'\xea\xd3\t\x05\xfa\xbf\xf5?'
p23
tp24
Rp25
sS'min'
p26
g4
(g8
S'\x0e\xf4^W\x00J\xe2>'
p27
tp28
Rp29
ss.